; Function Attrs: mustprogress nounwind uwtable
define noundef i32 @_ZNK4LIEF5MachO16RelocationObject5valueEv(ptr noundef nonnull readonly align 8 captures(none) dereferenceable(64) %0) local_unnamed_addr #1 align 2 {
  %2 = alloca %"struct.spdlog::source_loc", align 8
  %3 = getelementptr inbounds nuw i8, ptr %0, i64 57
  %4 = load i8, ptr %3, align 1, !tbaa !25, !range !32, !noundef !33
  %5 = trunc nuw i8 %4 to i1
  br i1 %5, label %9, label %6

6:                                                ; preds = %1
  %7 = tail call noundef nonnull align 8 dereferenceable(16) ptr @_ZN4LIEF7logging6Logger8instanceEPKc(ptr noundef nonnull @.str.2) #22
  %8 = load ptr, ptr %7, align 8, !tbaa !36
  call void @llvm.lifetime.start.p0(i64 24, ptr nonnull %2)
  call void @llvm.memset.p0.i64(ptr noundef nonnull align 8 dereferenceable(24) %2, i8 0, i64 24, i1 false)
  tail call void @_ZN6spdlog6logger4log_IJEEEvNS_10source_locENS_5level10level_enumEN3fmt3v1017basic_string_viewIcEEDpOT_(ptr noundef nonnull align 8 dereferenceable(208) %8, ptr noundef nonnull byval(%"struct.spdlog::source_loc") align 8 %2, i32 noundef 4, ptr nonnull @.str, i64 40)
  call void @llvm.lifetime.end.p0(i64 24, ptr nonnull %2)
  br label %12

9:                                                ; preds = %1
  %10 = getelementptr inbounds nuw i8, ptr %0, i64 60
  %11 = load i32, ptr %10, align 4, !tbaa !26
  br label %12

12:                                               ; preds = %9, %6
  %.0 = phi i32 [ %11, %9 ], [ -1, %6 ]
  ret i32 %.0
}